target datalayout = "e-m:e-p270:32:32-p271:32:32-p272:64:64-i64:64-i128:128-f80:128-n8:16:32:64-S128"
target triple = "x86_64-pc-linux-gnu"

@under_uid_switch = internal global i32 0, align 4
@rb_eRuntimeError = external global i64, align 8
@.str.228 = private unnamed_addr constant [76 x i8] c"can't handle UID while evaluating block given to Process::UID.switch method\00", align 1

; Function Attrs: inlinehint nounwind sspstrong uwtable
define internal i32 @obj2uid0(i64 noundef %0) #1 {
  %2 = alloca i64, align 8
  %3 = alloca i32, align 4
  %4 = alloca i64, align 8
  store i64 %0, ptr %2, align 8, !tbaa !35
  call void @llvm.lifetime.start.p0(i64 4, ptr %3) #27
  call void @llvm.lifetime.start.p0(i64 8, ptr %4) #27
  store i64 0, ptr %4, align 8, !tbaa !35
  %5 = load i64, ptr %2, align 8, !tbaa !35
  %6 = call i32 @obj2uid(i64 noundef %5, ptr noundef %4)
  store i32 %6, ptr %3, align 4, !tbaa !34
  %7 = load i64, ptr %4, align 8, !tbaa !35
  %8 = icmp ne i64 %7, 0
  br i1 %8, label %9, label %12

9:                                                ; preds = %1
  %10 = load i64, ptr %4, align 8, !tbaa !35
  %11 = call i64 @rb_str_resize(i64 noundef %10, i64 noundef 0)
  br label %13

12:                                               ; preds = %1
  br label %13

13:                                               ; preds = %12, %9
  %14 = load i32, ptr %3, align 4, !tbaa !34
  call void @llvm.lifetime.end.p0(i64 8, ptr %4) #27
  call void @llvm.lifetime.end.p0(i64 4, ptr %3) #27
  ret i32 %14
}

; Function Attrs: nounwind sspstrong uwtable
define internal void @check_uid_switch() #0 {
  %1 = load i32, ptr @under_uid_switch, align 4, !tbaa !34
  %2 = icmp ne i32 %1, 0
  br i1 %2, label %3, label %5

3:                                                ; preds = %0
  %4 = load i64, ptr @rb_eRuntimeError, align 8, !tbaa !35
  call void (i64, ptr, ...) @rb_raise(i64 noundef %4, ptr noundef @.str.228) #30
  unreachable

5:                                                ; preds = %0
  ret void
}

; Function Attrs: nounwind sspstrong uwtable
define internal i64 @p_sys_setuid(i64 noundef %0, i64 noundef %1) #0 {
  %3 = alloca i64, align 8
  %4 = alloca i64, align 8
  %5 = alloca i32, align 4
  store i64 %0, ptr %3, align 8, !tbaa !35
  store i64 %1, ptr %4, align 8, !tbaa !35
  call void @check_uid_switch()
  %6 = load i64, ptr %4, align 8, !tbaa !35
  %7 = call i32 @obj2uid0(i64 noundef %6)
  %8 = call i32 @setuid(i32 noundef %7) #27
  %9 = icmp ne i32 %8, 0
  br i1 %9, label %10, label %16

10:                                               ; preds = %2
  br label %11

11:                                               ; preds = %10
  call void @llvm.lifetime.start.p0(i64 4, ptr %5) #27
  %12 = call ptr @rb_errno_ptr()
  %13 = load i32, ptr %12, align 4, !tbaa !34
  store i32 %13, ptr %5, align 4, !tbaa !34
  %14 = load i32, ptr %5, align 4, !tbaa !34
  call void @rb_syserr_fail(i32 noundef %14, ptr noundef null) #30
  unreachable

15:                                               ; No predecessors!
  br label %16

16:                                               ; preds = %15, %2
  ret i64 4
}